target datalayout = "e-m:e-p270:32:32-p271:32:32-p272:64:64-i64:64-i128:128-f80:128-n8:16:32:64-S128"
target triple = "x86_64-pc-linux-gnu"

%struct.SurfaceDataRasInfo = type { %struct.SurfaceDataBounds, ptr, i32, i32, i32, i32, ptr, ptr, ptr, ptr, ptr, ptr, i32, %union.anon.0 }
%struct.SurfaceDataBounds = type { i32, i32, i32, i32 }
%union.anon.0 = type { ptr, [56 x i8] }
%struct._CompositeInfo = type { i32, %union.anon.1, i32 }
%union.anon.1 = type { float }
%struct.ImageRef = type { ptr, ptr, i32, i32, i32, i32, i32, i32 }

; Function Attrs: nounwind uwtable
define hidden void @AnyIntDrawGlyphListXor(ptr noundef %0, ptr noundef %1, i32 noundef %2, i32 noundef %3, i32 noundef %4, i32 noundef %5, i32 noundef %6, i32 noundef %7, i32 noundef %8, ptr noundef %9, ptr noundef %10) #0 {
  %12 = alloca ptr, align 8
  %13 = alloca ptr, align 8
  %14 = alloca i32, align 4
  %15 = alloca i32, align 4
  %16 = alloca i32, align 4
  %17 = alloca i32, align 4
  %18 = alloca i32, align 4
  %19 = alloca i32, align 4
  %20 = alloca i32, align 4
  %21 = alloca ptr, align 8
  %22 = alloca ptr, align 8
  %23 = alloca i32, align 4
  %24 = alloca i32, align 4
  %25 = alloca i32, align 4
  %26 = alloca i32, align 4
  %27 = alloca ptr, align 8
  %28 = alloca ptr, align 8
  %29 = alloca i32, align 4
  %30 = alloca i32, align 4
  %31 = alloca i32, align 4
  %32 = alloca i32, align 4
  %33 = alloca i32, align 4
  %34 = alloca i32, align 4
  %35 = alloca i32, align 4
  %36 = alloca i32, align 4
  store ptr %0, ptr %12, align 8
  store ptr %1, ptr %13, align 8
  store i32 %2, ptr %14, align 4
  store i32 %3, ptr %15, align 4
  store i32 %4, ptr %16, align 4
  store i32 %5, ptr %17, align 4
  store i32 %6, ptr %18, align 4
  store i32 %7, ptr %19, align 4
  store i32 %8, ptr %20, align 4
  store ptr %9, ptr %21, align 8
  store ptr %10, ptr %22, align 8
  %37 = load ptr, ptr %12, align 8
  %38 = getelementptr inbounds %struct.SurfaceDataRasInfo, ptr %37, i32 0, i32 4
  %39 = load i32, ptr %38, align 8
  store i32 %39, ptr %24, align 4
  %40 = load ptr, ptr %22, align 8
  %41 = getelementptr inbounds %struct._CompositeInfo, ptr %40, i32 0, i32 1
  %42 = load i32, ptr %41, align 4
  store i32 %42, ptr %25, align 4
  %43 = load ptr, ptr %22, align 8
  %44 = getelementptr inbounds %struct._CompositeInfo, ptr %43, i32 0, i32 2
  %45 = load i32, ptr %44, align 4
  store i32 %45, ptr %26, align 4
  store i32 0, ptr %23, align 4
  br label %46

46:                                               ; preds = %209, %11
  %47 = load i32, ptr %23, align 4
  %48 = load i32, ptr %14, align 4
  %49 = icmp slt i32 %47, %48
  br i1 %49, label %50, label %212

50:                                               ; preds = %46
  %51 = load ptr, ptr %13, align 8
  %52 = load i32, ptr %23, align 4
  %53 = sext i32 %52 to i64
  %54 = getelementptr inbounds %struct.ImageRef, ptr %51, i64 %53
  %55 = getelementptr inbounds %struct.ImageRef, ptr %54, i32 0, i32 1
  %56 = load ptr, ptr %55, align 8
  store ptr %56, ptr %28, align 8
  %57 = load ptr, ptr %28, align 8
  %58 = icmp ne ptr %57, null
  br i1 %58, label %60, label %59

59:                                               ; preds = %50
  br label %209

60:                                               ; preds = %50
  %61 = load ptr, ptr %13, align 8
  %62 = load i32, ptr %23, align 4
  %63 = sext i32 %62 to i64
  %64 = getelementptr inbounds %struct.ImageRef, ptr %61, i64 %63
  %65 = getelementptr inbounds %struct.ImageRef, ptr %64, i32 0, i32 2
  %66 = load i32, ptr %65, align 8
  store i32 %66, ptr %29, align 4
  %67 = load ptr, ptr %13, align 8
  %68 = load i32, ptr %23, align 4
  %69 = sext i32 %68 to i64
  %70 = getelementptr inbounds %struct.ImageRef, ptr %67, i64 %69
  %71 = getelementptr inbounds %struct.ImageRef, ptr %70, i32 0, i32 6
  %72 = load i32, ptr %71, align 8
  store i32 %72, ptr %30, align 4
  %73 = load ptr, ptr %13, align 8
  %74 = load i32, ptr %23, align 4
  %75 = sext i32 %74 to i64
  %76 = getelementptr inbounds %struct.ImageRef, ptr %73, i64 %75
  %77 = getelementptr inbounds %struct.ImageRef, ptr %76, i32 0, i32 7
  %78 = load i32, ptr %77, align 4
  store i32 %78, ptr %31, align 4
  %79 = load ptr, ptr %13, align 8
  %80 = load i32, ptr %23, align 4
  %81 = sext i32 %80 to i64
  %82 = getelementptr inbounds %struct.ImageRef, ptr %79, i64 %81
  %83 = getelementptr inbounds %struct.ImageRef, ptr %82, i32 0, i32 4
  %84 = load i32, ptr %83, align 8
  store i32 %84, ptr %32, align 4
  %85 = load ptr, ptr %13, align 8
  %86 = load i32, ptr %23, align 4
  %87 = sext i32 %86 to i64
  %88 = getelementptr inbounds %struct.ImageRef, ptr %85, i64 %87
  %89 = getelementptr inbounds %struct.ImageRef, ptr %88, i32 0, i32 5
  %90 = load i32, ptr %89, align 4
  store i32 %90, ptr %33, align 4
  %91 = load i32, ptr %30, align 4
  %92 = load i32, ptr %32, align 4
  %93 = add nsw i32 %91, %92
  store i32 %93, ptr %34, align 4
  %94 = load i32, ptr %31, align 4
  %95 = load i32, ptr %33, align 4
  %96 = add nsw i32 %94, %95
  store i32 %96, ptr %35, align 4
  %97 = load i32, ptr %30, align 4
  %98 = load i32, ptr %17, align 4
  %99 = icmp slt i32 %97, %98
  br i1 %99, label %100, label %109

100:                                              ; preds = %60
  %101 = load i32, ptr %17, align 4
  %102 = load i32, ptr %30, align 4
  %103 = sub nsw i32 %101, %102
  %104 = mul nsw i32 %103, 1
  %105 = load ptr, ptr %28, align 8
  %106 = sext i32 %104 to i64
  %107 = getelementptr inbounds i8, ptr %105, i64 %106
  store ptr %107, ptr %28, align 8
  %108 = load i32, ptr %17, align 4
  store i32 %108, ptr %30, align 4
  br label %109

109:                                              ; preds = %100, %60
  %110 = load i32, ptr %31, align 4
  %111 = load i32, ptr %18, align 4
  %112 = icmp slt i32 %110, %111
  br i1 %112, label %113, label %123

113:                                              ; preds = %109
  %114 = load i32, ptr %18, align 4
  %115 = load i32, ptr %31, align 4
  %116 = sub nsw i32 %114, %115
  %117 = load i32, ptr %29, align 4
  %118 = mul nsw i32 %116, %117
  %119 = load ptr, ptr %28, align 8
  %120 = sext i32 %118 to i64
  %121 = getelementptr inbounds i8, ptr %119, i64 %120
  store ptr %121, ptr %28, align 8
  %122 = load i32, ptr %18, align 4
  store i32 %122, ptr %31, align 4
  br label %123

123:                                              ; preds = %113, %109
  %124 = load i32, ptr %34, align 4
  %125 = load i32, ptr %19, align 4
  %126 = icmp sgt i32 %124, %125
  br i1 %126, label %127, label %129

127:                                              ; preds = %123
  %128 = load i32, ptr %19, align 4
  store i32 %128, ptr %34, align 4
  br label %129

129:                                              ; preds = %127, %123
  %130 = load i32, ptr %35, align 4
  %131 = load i32, ptr %20, align 4
  %132 = icmp sgt i32 %130, %131
  br i1 %132, label %133, label %135

133:                                              ; preds = %129
  %134 = load i32, ptr %20, align 4
  store i32 %134, ptr %35, align 4
  br label %135

135:                                              ; preds = %133, %129
  %136 = load i32, ptr %34, align 4
  %137 = load i32, ptr %30, align 4
  %138 = icmp sle i32 %136, %137
  br i1 %138, label %143, label %139

139:                                              ; preds = %135
  %140 = load i32, ptr %35, align 4
  %141 = load i32, ptr %31, align 4
  %142 = icmp sle i32 %140, %141
  br i1 %142, label %143, label %144

143:                                              ; preds = %139, %135
  br label %209

144:                                              ; preds = %139
  %145 = load i32, ptr %34, align 4
  %146 = load i32, ptr %30, align 4
  %147 = sub nsw i32 %145, %146
  store i32 %147, ptr %32, align 4
  %148 = load i32, ptr %35, align 4
  %149 = load i32, ptr %31, align 4
  %150 = sub nsw i32 %148, %149
  store i32 %150, ptr %33, align 4
  %151 = load ptr, ptr %12, align 8
  %152 = getelementptr inbounds %struct.SurfaceDataRasInfo, ptr %151, i32 0, i32 1
  %153 = load ptr, ptr %152, align 8
  %154 = ptrtoint ptr %153 to i64
  %155 = load i32, ptr %31, align 4
  %156 = sext i32 %155 to i64
  %157 = load i32, ptr %24, align 4
  %158 = sext i32 %157 to i64
  %159 = mul nsw i64 %156, %158
  %160 = load i32, ptr %30, align 4
  %161 = sext i32 %160 to i64
  %162 = mul nsw i64 %161, 4
  %163 = add nsw i64 %159, %162
  %164 = add nsw i64 %154, %163
  %165 = inttoptr i64 %164 to ptr
  store ptr %165, ptr %27, align 8
  br label %166

166:                                              ; preds = %204, %144
  store i32 0, ptr %36, align 4
  br label %167

167:                                              ; preds = %188, %166
  %168 = load ptr, ptr %28, align 8
  %169 = load i32, ptr %36, align 4
  %170 = sext i32 %169 to i64
  %171 = getelementptr inbounds i8, ptr %168, i64 %170
  %172 = load i8, ptr %171, align 1
  %173 = icmp ne i8 %172, 0
  br i1 %173, label %174, label %187

174:                                              ; preds = %167
  %175 = load i32, ptr %15, align 4
  %176 = load i32, ptr %25, align 4
  %177 = xor i32 %175, %176
  %178 = load i32, ptr %26, align 4
  %179 = xor i32 %178, -1
  %180 = and i32 %177, %179
  %181 = load ptr, ptr %27, align 8
  %182 = load i32, ptr %36, align 4
  %183 = sext i32 %182 to i64
  %184 = getelementptr inbounds i32, ptr %181, i64 %183
  %185 = load i32, ptr %184, align 4
  %186 = xor i32 %185, %180
  store i32 %186, ptr %184, align 4
  br label %187

187:                                              ; preds = %174, %167
  br label %188

188:                                              ; preds = %187
  %189 = load i32, ptr %36, align 4
  %190 = add nsw i32 %189, 1
  store i32 %190, ptr %36, align 4
  %191 = load i32, ptr %32, align 4
  %192 = icmp slt i32 %190, %191
  br i1 %192, label %167, label %193, !llvm.loop !26

193:                                              ; preds = %188
  %194 = load ptr, ptr %27, align 8
  %195 = ptrtoint ptr %194 to i64
  %196 = load i32, ptr %24, align 4
  %197 = sext i32 %196 to i64
  %198 = add nsw i64 %195, %197
  %199 = inttoptr i64 %198 to ptr
  store ptr %199, ptr %27, align 8
  %200 = load i32, ptr %29, align 4
  %201 = load ptr, ptr %28, align 8
  %202 = sext i32 %200 to i64
  %203 = getelementptr inbounds i8, ptr %201, i64 %202
  store ptr %203, ptr %28, align 8
  br label %204

204:                                              ; preds = %193
  %205 = load i32, ptr %33, align 4
  %206 = add nsw i32 %205, -1
  store i32 %206, ptr %33, align 4
  %207 = icmp sgt i32 %206, 0
  br i1 %207, label %166, label %208, !llvm.loop !27

208:                                              ; preds = %204
  br label %209

209:                                              ; preds = %208, %143, %59
  %210 = load i32, ptr %23, align 4
  %211 = add nsw i32 %210, 1
  store i32 %211, ptr %23, align 4
  br label %46, !llvm.loop !28

212:                                              ; preds = %46
  ret void
}